; Function Attrs: nofree norecurse nosync nounwind memory(read, argmem: readwrite, inaccessiblemem: none) uwtable
define nonnull ptr @If_CutArrTimeProfile(ptr noundef %0, ptr noundef readonly captures(none) %1) local_unnamed_addr #3 {
  %3 = getelementptr i8, ptr %1, i64 28
  %.val9 = load i64, ptr %3, align 4
  %4 = and i64 %.val9, 4278190080
  %.not = icmp eq i64 %4, 0
  br i1 %.not, label %._crit_edge, label %.lr.ph

.lr.ph:                                           ; preds = %2
  %5 = getelementptr i8, ptr %0, i64 40
  %.val8 = load ptr, ptr %5, align 8, !tbaa !35
  %6 = getelementptr i8, ptr %.val8, i64 8
  %.val8.val = load ptr, ptr %6, align 8, !tbaa !11
  %7 = getelementptr inbounds nuw i8, ptr %1, i64 36
  %8 = getelementptr inbounds nuw i8, ptr %0, i64 2112
  br label %9

9:                                                ; preds = %.lr.ph, %9
  %indvars.iv = phi i64 [ 0, %.lr.ph ], [ %indvars.iv.next, %9 ]
  %10 = getelementptr inbounds nuw [0 x i32], ptr %7, i64 0, i64 %indvars.iv
  %11 = load i32, ptr %10, align 4, !tbaa !34
  %12 = sext i32 %11 to i64
  %13 = getelementptr inbounds ptr, ptr %.val8.val, i64 %12
  %14 = load ptr, ptr %13, align 8, !tbaa !12
  %15 = getelementptr inbounds nuw i8, ptr %14, i64 92
  %16 = load float, ptr %15, align 4, !tbaa !36
  %17 = fptosi float %16 to i32
  %18 = getelementptr inbounds nuw [15 x i32], ptr %8, i64 0, i64 %indvars.iv
  store i32 %17, ptr %18, align 4, !tbaa !34
  %indvars.iv.next = add nuw nsw i64 %indvars.iv, 1
  %.val = load i64, ptr %3, align 4
  %19 = lshr i64 %.val, 24
  %20 = and i64 %19, 255
  %21 = icmp samesign ult i64 %indvars.iv.next, %20
  br i1 %21, label %9, label %._crit_edge, !llvm.loop !42

._crit_edge:                                      ; preds = %9, %2
  %22 = getelementptr inbounds nuw i8, ptr %0, i64 2112
  ret ptr %22
}